; Function Attrs: nounwind uwtable
define hidden i32 @lj_ir_knumint(ptr noundef captures(none) %0, double noundef %1) local_unnamed_addr #6 {
  %3 = fptosi double %1 to i32
  %4 = sitofp i32 %3 to double
  %5 = fcmp oeq double %1, %4
  br i1 %5, label %numistrueint.exit, label %.numistrueint.exit.thread_crit_edge

.numistrueint.exit.thread_crit_edge:              ; preds = %2
  %.pre = bitcast double %1 to i64
  br label %numistrueint.exit.thread

numistrueint.exit:                                ; preds = %2
  %6 = icmp eq i32 %3, 0
  %7 = bitcast double %1 to i64
  %.not.i = icmp ugt i64 %7, 4294967295
  %or.cond.i.not = and i1 %6, %.not.i
  br i1 %or.cond.i.not, label %numistrueint.exit.thread, label %8

8:                                                ; preds = %numistrueint.exit
  %9 = getelementptr inbounds nuw i8, ptr %0, i64 32
  %10 = load ptr, ptr %9, align 8, !tbaa !30
  %11 = getelementptr inbounds nuw i8, ptr %0, i64 448
  %.0.in19.i = load i16, ptr %11, align 2, !tbaa !33
  %.not20.i = icmp eq i16 %.0.in19.i, 0
  br i1 %.not20.i, label %._crit_edge.i, label %.lr.ph.i

12:                                               ; preds = %.lr.ph.i
  %13 = getelementptr inbounds nuw i8, ptr %15, i64 6
  %.0.in.i = load i16, ptr %13, align 2, !tbaa !33
  %.not.i4 = icmp eq i16 %.0.in.i, 0
  br i1 %.not.i4, label %._crit_edge.i, label %.lr.ph.i, !llvm.loop !42

.lr.ph.i:                                         ; preds = %8, %12
  %.0.in21.i = phi i16 [ %.0.in.i, %12 ], [ %.0.in19.i, %8 ]
  %14 = zext i16 %.0.in21.i to i64
  %15 = getelementptr inbounds nuw %union.IRIns, ptr %10, i64 %14
  %16 = load i32, ptr %15, align 8, !tbaa !33
  %17 = icmp eq i32 %16, %3
  br i1 %17, label %.loopexit.i, label %12

._crit_edge.i:                                    ; preds = %12, %8
  %18 = getelementptr inbounds nuw i8, ptr %0, i64 40
  %19 = load i32, ptr %18, align 8, !tbaa !43
  %20 = getelementptr inbounds nuw i8, ptr %0, i64 340
  %21 = load i32, ptr %20, align 4, !tbaa !4
  %.not.i.i = icmp ugt i32 %19, %21
  br i1 %.not.i.i, label %ir_nextk.exit.i, label %22, !prof !32

22:                                               ; preds = %._crit_edge.i
  tail call fastcc void @lj_ir_growbot(ptr noundef nonnull %0)
  %.pre.i = load ptr, ptr %9, align 8, !tbaa !30
  br label %ir_nextk.exit.i

ir_nextk.exit.i:                                  ; preds = %22, %._crit_edge.i
  %23 = phi ptr [ %10, %._crit_edge.i ], [ %.pre.i, %22 ]
  %24 = add i32 %19, -1
  store i32 %24, ptr %18, align 8, !tbaa !43
  %25 = zext i32 %24 to i64
  %26 = getelementptr inbounds nuw %union.IRIns, ptr %23, i64 %25
  store i32 %3, ptr %26, align 8, !tbaa !33
  %27 = getelementptr inbounds nuw i8, ptr %26, i64 4
  store i8 19, ptr %27, align 4, !tbaa !33
  %28 = getelementptr inbounds nuw i8, ptr %26, i64 5
  store i8 23, ptr %28, align 1, !tbaa !33
  %29 = load i16, ptr %11, align 2, !tbaa !34
  %30 = getelementptr inbounds nuw i8, ptr %26, i64 6
  store i16 %29, ptr %30, align 2, !tbaa !33
  %31 = trunc i32 %24 to i16
  store i16 %31, ptr %11, align 2, !tbaa !34
  br label %lj_ir_kint.exit

.loopexit.i:                                      ; preds = %.lr.ph.i
  %.0.le.i = zext i16 %.0.in21.i to i32
  br label %lj_ir_kint.exit

lj_ir_kint.exit:                                  ; preds = %ir_nextk.exit.i, %.loopexit.i
  %.1.i5 = phi i32 [ %24, %ir_nextk.exit.i ], [ %.0.le.i, %.loopexit.i ]
  %32 = add i32 %.1.i5, 318767104
  br label %60

numistrueint.exit.thread:                         ; preds = %.numistrueint.exit.thread_crit_edge, %numistrueint.exit
  %.pre-phi = phi i64 [ %.pre, %.numistrueint.exit.thread_crit_edge ], [ %7, %numistrueint.exit ]
  %33 = getelementptr inbounds nuw i8, ptr %0, i64 32
  %34 = load ptr, ptr %33, align 8, !tbaa !30
  %35 = getelementptr inbounds nuw i8, ptr %0, i64 458
  %.0.in27.i.i = load i16, ptr %35, align 2, !tbaa !33
  %.not28.i.i = icmp eq i16 %.0.in27.i.i, 0
  br i1 %.not28.i.i, label %._crit_edge.i.i, label %.lr.ph.i.i

36:                                               ; preds = %.lr.ph.i.i
  %37 = getelementptr inbounds nuw i8, ptr %39, i64 6
  %.0.in.i.i = load i16, ptr %37, align 2, !tbaa !33
  %.not.i.i6 = icmp eq i16 %.0.in.i.i, 0
  br i1 %.not.i.i6, label %._crit_edge.i.i, label %.lr.ph.i.i, !llvm.loop !44

.lr.ph.i.i:                                       ; preds = %numistrueint.exit.thread, %36
  %.0.in29.i.i = phi i16 [ %.0.in.i.i, %36 ], [ %.0.in27.i.i, %numistrueint.exit.thread ]
  %38 = zext i16 %.0.in29.i.i to i64
  %39 = getelementptr inbounds nuw %union.IRIns, ptr %34, i64 %38
  %40 = getelementptr inbounds nuw i8, ptr %39, i64 8
  %41 = load i64, ptr %40, align 8, !tbaa !33
  %42 = icmp eq i64 %41, %.pre-phi
  br i1 %42, label %.loopexit.i.i, label %36

._crit_edge.i.i:                                  ; preds = %36, %numistrueint.exit.thread
  %43 = getelementptr inbounds nuw i8, ptr %0, i64 40
  %44 = load i32, ptr %43, align 8, !tbaa !43
  %45 = add i32 %44, -2
  %46 = getelementptr inbounds nuw i8, ptr %0, i64 340
  %47 = load i32, ptr %46, align 4, !tbaa !4
  %48 = icmp ult i32 %45, %47
  br i1 %48, label %49, label %ir_nextk64.exit.i.i, !prof !45

49:                                               ; preds = %._crit_edge.i.i
  tail call fastcc void @lj_ir_growbot(ptr noundef nonnull %0)
  %.pre.i.i = load ptr, ptr %33, align 8, !tbaa !30
  br label %ir_nextk64.exit.i.i

ir_nextk64.exit.i.i:                              ; preds = %49, %._crit_edge.i.i
  %50 = phi ptr [ %34, %._crit_edge.i.i ], [ %.pre.i.i, %49 ]
  store i32 %45, ptr %43, align 8, !tbaa !43
  %51 = zext i32 %45 to i64
  %52 = getelementptr inbounds nuw %union.IRIns, ptr %50, i64 %51
  %53 = getelementptr inbounds nuw i8, ptr %52, i64 8
  store double %1, ptr %53, align 8, !tbaa !33
  %54 = getelementptr inbounds nuw i8, ptr %52, i64 4
  store i8 14, ptr %54, align 4, !tbaa !33
  %55 = getelementptr inbounds nuw i8, ptr %52, i64 5
  store i8 28, ptr %55, align 1, !tbaa !33
  store i32 0, ptr %52, align 8, !tbaa !33
  %56 = load i16, ptr %35, align 2, !tbaa !34
  %57 = getelementptr inbounds nuw i8, ptr %52, i64 6
  store i16 %56, ptr %57, align 2, !tbaa !33
  %58 = trunc i32 %45 to i16
  store i16 %58, ptr %35, align 2, !tbaa !34
  br label %lj_ir_knum_u64.exit

.loopexit.i.i:                                    ; preds = %.lr.ph.i.i
  %.0.le.i.i = zext i16 %.0.in29.i.i to i32
  br label %lj_ir_knum_u64.exit

lj_ir_knum_u64.exit:                              ; preds = %ir_nextk64.exit.i.i, %.loopexit.i.i
  %.1.i.i = phi i32 [ %45, %ir_nextk64.exit.i.i ], [ %.0.le.i.i, %.loopexit.i.i ]
  %59 = add i32 %.1.i.i, 234881024
  br label %60

60:                                               ; preds = %lj_ir_knum_u64.exit, %lj_ir_kint.exit
  %.0 = phi i32 [ %32, %lj_ir_kint.exit ], [ %59, %lj_ir_knum_u64.exit ]
  ret i32 %.0
}